Certificate:
    Data:
        Version: 3 (0x2)
        Serial Number: 3 (0x3)
    Signature Algorithm: sha1WithRSAEncryption
        Issuer: C=VN, ST=HCM, L=HCM, O=FPT, CN=118.69.135.152
        Validity
            Not Before: Dec 25 07:27:24 2015 GMT
            Not After : Dec 24 07:27:24 2017 GMT
        Subject: C=VN, ST=HCM, L=HCM, O=ABC, OU=ABC, CN=118.69.135.152
        Subject Public Key Info:
            Public Key Algorithm: rsaEncryption
                Public-Key: (2048 bit)
                Modulus:
                    00:d9:3c:7e:38:f7:c0:4b:3b:12:54:40:78:69:a9:
                    cf:30:40:ba:cb:be:81:3b:c8:ac:06:c9:08:b7:89:
                    1b:64:ec:81:2a:88:b0:86:e3:f3:d1:2a:38:7d:d8:
                    54:f1:c8:35:fa:d8:ca:96:fc:fd:7f:68:cf:5c:1c:
                    cf:93:d0:ff:e3:7e:a4:ba:0a:ac:e5:d7:d2:9d:38:
                    12:55:88:d4:3a:cd:25:75:72:5e:fb:dc:76:60:26:
                    fd:2d:db:7b:36:b2:92:16:ce:00:df:91:90:60:20:
                    12:ae:08:e4:f2:36:2c:74:cd:8f:c0:20:72:61:c1:
                    e0:7a:f9:c4:f7:8d:16:03:06:d3:81:60:08:21:bd:
                    de:fc:74:c0:cc:9c:5a:3b:0b:f1:7c:d5:37:45:c5:
                    a9:f5:63:02:ba:41:f8:b9:20:72:bd:bc:b6:a8:47:
                    bf:84:19:2f:39:87:7c:01:40:c0:54:03:e7:fb:e9:
                    a1:48:42:fe:98:b6:1a:24:b0:d2:2b:1d:b7:17:b6:
                    54:92:39:d2:36:94:70:db:09:40:63:57:e7:c5:39:
                    0a:5a:80:5e:86:5f:44:eb:e6:8f:94:1b:14:8a:dc:
                    d5:06:7f:d0:1f:28:79:48:f7:70:cb:a1:88:05:ac:
                    de:bb:c6:1e:be:fa:50:86:89:94:7d:5e:9c:b4:7e:
                    1e:f3
                Exponent: 65537 (0x10001)
        X509v3 extensions:
            X509v3 Basic Constraints: 
                CA:FALSE
            Netscape Comment: 
                OpenSSL Generated Certificate
            X509v3 Subject Key Identifier: 
                DD:CB:7E:7B:51:EA:0F:4C:79:A2:E6:F9:38:F5:82:E7:FC:5B:32:C0
            X509v3 Authority Key Identifier: 
                keyid:68:9A:B6:B1:FA:C1:D9:C1:DA:B9:B7:BD:A3:71:3D:E2:A1:6A:82:E1

    Signature Algorithm: sha1WithRSAEncryption
         14:22:f5:bc:98:5b:0d:28:e2:5a:27:49:52:09:6f:ae:e7:f8:
         b1:ab:62:8c:60:7d:86:b2:01:ed:8f:21:66:09:85:81:2c:c0:
         15:4f:93:6d:14:69:35:76:52:d4:ba:9e:c5:2a:14:4d:a8:03:
         c3:ff:c7:bf:7c:17:39:80:10:55:f8:8f:98:e4:29:5f:73:6c:
         d3:3a:ec:f0:c2:ce:fd:de:02:d0:15:00:1d:ab:ec:c4:83:31:
         9c:88:f2:63:9e:96:83:70:11:85:ba:b0:c5:d7:33:65:1e:b4:
         0f:ab:09:43:93:07:bc:6c:bc:9f:78:8a:2d:36:2d:b1:1d:2c:
         6c:29:ac:21:76:41:d6:cb:a0:c5:e6:f8:20:84:cc:bc:bc:4a:
         97:a6:88:83:fb:9f:3f:d2:27:35:a8:c8:59:9b:50:17:41:79:
         c8:ae:3e:0f:29:d0:7f:28:46:81:5d:36:09:47:8d:fa:8b:2f:
         1b:68:92:64:4b:d2:33:b9:25:f1:0b:f2:4e:4f:6b:ab:0f:cb:
         1f:fb:33:71:af:4b:0b:cb:91:94:5b:14:b0:1d:16:10:13:45:
         02:28:c6:cb:96:91:a9:57:53:4f:57:41:f7:44:36:37:6f:18:
         0d:82:cd:59:34:f9:3b:aa:b6:f0:5c:d5:fa:ad:ae:91:d0:28:
         d1:75:4e:34
-----BEGIN CERTIFICATE-----
MIIDpDCCAoygAwIBAgIBAzANBgkqhkiG9w0BAQUFADBQMQswCQYDVQQGEwJWTjEM
MAoGA1UECAwDSENNMQwwCgYDVQQHDANIQ00xDDAKBgNVBAoMA0ZQVDEXMBUGA1UE
AwwOMTE4LjY5LjEzNS4xNTIwHhcNMTUxMjI1MDcyNzI0WhcNMTcxMjI0MDcyNzI0
WjBeMQswCQYDVQQGEwJWTjEMMAoGA1UECAwDSENNMQwwCgYDVQQHDANIQ00xDDAK
BgNVBAoMA0FCQzEMMAoGA1UECwwDQUJDMRcwFQYDVQQDDA4xMTguNjkuMTM1LjE1
MjCCASIwDQYJKoZIhvcNAQEBBQADggEPADCCAQoCggEBANk8fjj3wEs7ElRAeGmp
zzBAusu+gTvIrAbJCLeJG2TsgSqIsIbj89EqOH3YVPHINfrYypb8/X9oz1wcz5PQ
/+N+pLoKrOXX0p04ElWI1DrNJXVyXvvcdmAm/S3bezaykhbOAN+RkGAgEq4I5PI2
LHTNj8AgcmHB4Hr5xPeNFgMG04FgCCG93vx0wMycWjsL8XzVN0XFqfVjArpB+Lkg
cr28tqhHv4QZLzmHfAFAwFQD5/vpoUhC/pi2GiSw0isdtxe2VJI50jaUcNsJQGNX
58U5ClqAXoZfROvmj5QbFIrc1QZ/0B8oeUj3cMuhiAWs3rvGHr76UIaJlH1enLR+
HvMCAwEAAaN7MHkwCQYDVR0TBAIwADAsBglghkgBhvhCAQ0EHxYdT3BlblNTTCBH
ZW5lcmF0ZWQgQ2VydGlmaWNhdGUwHQYDVR0OBBYEFN3LfntR6g9MeaLm+Tj1guf8
WzLAMB8GA1UdIwQYMBaAFGiatrH6wdnB2rm3vaNxPeKhaoLhMA0GCSqGSIb3DQEB
BQUAA4IBAQAUIvW8mFsNKOJaJ0lSCW+u5/ixq2KMYH2GsgHtjyFmCYWBLMAVT5Nt
FGk1dlLUup7FKhRNqAPD/8e/fBc5gBBV+I+Y5Clfc2zTOuzwws793gLQFQAdq+zE
gzGciPJjnpaDcBGFurDF1zNlHrQPqwlDkwe8bLyfeIotNi2xHSxsKawhdkHWy6DF
5vgghMy8vEqXpoiD+58/0ic1qMhZm1AXQXnIrj4PKdB/KEaBXTYJR436iy8baJJk
S9IzuSXxC/JOT2urD8sf+zNxr0sLy5GUWxSwHRYQE0UCKMbLlpGpV1NPV0H3RDY3
bxgNgs1ZNPk7qrbwXNX6ra6R0CjRdU40
-----END CERTIFICATE-----
